target datalayout = "e-m:e-p270:32:32-p271:32:32-p272:64:64-i64:64-i128:128-f80:128-n8:16:32:64-S128"
target triple = "x86_64-pc-linux-gnu"

%struct.bignum_st = type { ptr, i32, i32, i32, i32 }

; Function Attrs: nounwind uwtable
define hidden i32 @BN_mul(ptr noundef %0, ptr noundef %1, ptr noundef %2, ptr noundef %3) #0 {
  %5 = alloca i32, align 4
  %6 = alloca ptr, align 8
  %7 = alloca ptr, align 8
  %8 = alloca ptr, align 8
  %9 = alloca ptr, align 8
  %10 = alloca i32, align 4
  %11 = alloca i32, align 4
  %12 = alloca i32, align 4
  %13 = alloca i32, align 4
  %14 = alloca ptr, align 8
  %15 = alloca i32, align 4
  %16 = alloca ptr, align 8
  %17 = alloca i32, align 4
  %18 = alloca i32, align 4
  %19 = alloca i32, align 4
  store ptr %0, ptr %6, align 8, !tbaa !6
  store ptr %1, ptr %7, align 8, !tbaa !6
  store ptr %2, ptr %8, align 8, !tbaa !6
  store ptr %3, ptr %9, align 8, !tbaa !11
  call void @llvm.lifetime.start.p0(i64 4, ptr %10) #4
  store i32 0, ptr %10, align 4, !tbaa !13
  call void @llvm.lifetime.start.p0(i64 4, ptr %11) #4
  call void @llvm.lifetime.start.p0(i64 4, ptr %12) #4
  call void @llvm.lifetime.start.p0(i64 4, ptr %13) #4
  call void @llvm.lifetime.start.p0(i64 8, ptr %14) #4
  call void @llvm.lifetime.start.p0(i64 4, ptr %15) #4
  call void @llvm.lifetime.start.p0(i64 8, ptr %16) #4
  store ptr null, ptr %16, align 8, !tbaa !6
  call void @llvm.lifetime.start.p0(i64 4, ptr %17) #4
  store i32 0, ptr %17, align 4, !tbaa !13
  call void @llvm.lifetime.start.p0(i64 4, ptr %18) #4
  %20 = load ptr, ptr %7, align 8, !tbaa !6
  %21 = getelementptr inbounds nuw %struct.bignum_st, ptr %20, i32 0, i32 1
  %22 = load i32, ptr %21, align 8, !tbaa !15
  store i32 %22, ptr %12, align 4, !tbaa !13
  %23 = load ptr, ptr %8, align 8, !tbaa !6
  %24 = getelementptr inbounds nuw %struct.bignum_st, ptr %23, i32 0, i32 1
  %25 = load i32, ptr %24, align 8, !tbaa !15
  store i32 %25, ptr %13, align 4, !tbaa !13
  %26 = load i32, ptr %12, align 4, !tbaa !13
  %27 = icmp eq i32 %26, 0
  br i1 %27, label %31, label %28

28:                                               ; preds = %4
  %29 = load i32, ptr %13, align 4, !tbaa !13
  %30 = icmp eq i32 %29, 0
  br i1 %30, label %31, label %33

31:                                               ; preds = %28, %4
  %32 = load ptr, ptr %6, align 8, !tbaa !6
  call void @BN_zero(ptr noundef %32)
  store i32 1, ptr %5, align 4
  store i32 1, ptr %19, align 4
  br label %249

33:                                               ; preds = %28
  %34 = load i32, ptr %12, align 4, !tbaa !13
  %35 = load i32, ptr %13, align 4, !tbaa !13
  %36 = add nsw i32 %34, %35
  store i32 %36, ptr %11, align 4, !tbaa !13
  %37 = load ptr, ptr %9, align 8, !tbaa !11
  call void @BN_CTX_start(ptr noundef %37)
  %38 = load ptr, ptr %6, align 8, !tbaa !6
  %39 = load ptr, ptr %7, align 8, !tbaa !6
  %40 = icmp eq ptr %38, %39
  br i1 %40, label %45, label %41

41:                                               ; preds = %33
  %42 = load ptr, ptr %6, align 8, !tbaa !6
  %43 = load ptr, ptr %8, align 8, !tbaa !6
  %44 = icmp eq ptr %42, %43
  br i1 %44, label %45, label %51

45:                                               ; preds = %41, %33
  %46 = load ptr, ptr %9, align 8, !tbaa !11
  %47 = call ptr @BN_CTX_get(ptr noundef %46)
  store ptr %47, ptr %14, align 8, !tbaa !6
  %48 = icmp eq ptr %47, null
  br i1 %48, label %49, label %50

49:                                               ; preds = %45
  br label %246

50:                                               ; preds = %45
  br label %53

51:                                               ; preds = %41
  %52 = load ptr, ptr %6, align 8, !tbaa !6
  store ptr %52, ptr %14, align 8, !tbaa !6
  br label %53

53:                                               ; preds = %51, %50
  %54 = load ptr, ptr %7, align 8, !tbaa !6
  %55 = getelementptr inbounds nuw %struct.bignum_st, ptr %54, i32 0, i32 3
  %56 = load i32, ptr %55, align 8, !tbaa !18
  %57 = load ptr, ptr %8, align 8, !tbaa !6
  %58 = getelementptr inbounds nuw %struct.bignum_st, ptr %57, i32 0, i32 3
  %59 = load i32, ptr %58, align 8, !tbaa !18
  %60 = xor i32 %56, %59
  %61 = load ptr, ptr %14, align 8, !tbaa !6
  %62 = getelementptr inbounds nuw %struct.bignum_st, ptr %61, i32 0, i32 3
  store i32 %60, ptr %62, align 8, !tbaa !18
  %63 = load i32, ptr %12, align 4, !tbaa !13
  %64 = load i32, ptr %13, align 4, !tbaa !13
  %65 = sub nsw i32 %63, %64
  store i32 %65, ptr %15, align 4, !tbaa !13
  %66 = load i32, ptr %15, align 4, !tbaa !13
  %67 = icmp eq i32 %66, 0
  br i1 %67, label %68, label %89

68:                                               ; preds = %53
  %69 = load i32, ptr %12, align 4, !tbaa !13
  %70 = icmp eq i32 %69, 8
  br i1 %70, label %71, label %88

71:                                               ; preds = %68
  %72 = load ptr, ptr %14, align 8, !tbaa !6
  %73 = call ptr @bn_wexpand(ptr noundef %72, i64 noundef 16)
  %74 = icmp eq ptr %73, null
  br i1 %74, label %75, label %76

75:                                               ; preds = %71
  br label %246

76:                                               ; preds = %71
  %77 = load ptr, ptr %14, align 8, !tbaa !6
  %78 = getelementptr inbounds nuw %struct.bignum_st, ptr %77, i32 0, i32 1
  store i32 16, ptr %78, align 8, !tbaa !15
  %79 = load ptr, ptr %14, align 8, !tbaa !6
  %80 = getelementptr inbounds nuw %struct.bignum_st, ptr %79, i32 0, i32 0
  %81 = load ptr, ptr %80, align 8, !tbaa !19
  %82 = load ptr, ptr %7, align 8, !tbaa !6
  %83 = getelementptr inbounds nuw %struct.bignum_st, ptr %82, i32 0, i32 0
  %84 = load ptr, ptr %83, align 8, !tbaa !19
  %85 = load ptr, ptr %8, align 8, !tbaa !6
  %86 = getelementptr inbounds nuw %struct.bignum_st, ptr %85, i32 0, i32 0
  %87 = load ptr, ptr %86, align 8, !tbaa !19
  call void @bn_mul_comba8(ptr noundef %81, ptr noundef %84, ptr noundef %87)
  br label %234

88:                                               ; preds = %68
  br label %89

89:                                               ; preds = %88, %53
  %90 = load i32, ptr %12, align 4, !tbaa !13
  %91 = icmp sge i32 %90, 16
  br i1 %91, label %92, label %212

92:                                               ; preds = %89
  %93 = load i32, ptr %13, align 4, !tbaa !13
  %94 = icmp sge i32 %93, 16
  br i1 %94, label %95, label %212

95:                                               ; preds = %92
  %96 = load i32, ptr %15, align 4, !tbaa !13
  %97 = icmp sge i32 %96, -1
  br i1 %97, label %98, label %211

98:                                               ; preds = %95
  %99 = load i32, ptr %15, align 4, !tbaa !13
  %100 = icmp sle i32 %99, 1
  br i1 %100, label %101, label %211

101:                                              ; preds = %98
  %102 = load i32, ptr %15, align 4, !tbaa !13
  %103 = icmp sge i32 %102, 0
  br i1 %103, label %104, label %108

104:                                              ; preds = %101
  %105 = load i32, ptr %12, align 4, !tbaa !13
  %106 = sext i32 %105 to i64
  %107 = call i32 @BN_num_bits_word(i64 noundef %106)
  store i32 %107, ptr %17, align 4, !tbaa !13
  br label %108

108:                                              ; preds = %104, %101
  %109 = load i32, ptr %15, align 4, !tbaa !13
  %110 = icmp eq i32 %109, -1
  br i1 %110, label %111, label %115

111:                                              ; preds = %108
  %112 = load i32, ptr %13, align 4, !tbaa !13
  %113 = sext i32 %112 to i64
  %114 = call i32 @BN_num_bits_word(i64 noundef %113)
  store i32 %114, ptr %17, align 4, !tbaa !13
  br label %115

115:                                              ; preds = %111, %108
  %116 = load i32, ptr %17, align 4, !tbaa !13
  %117 = sub nsw i32 %116, 1
  %118 = shl i32 1, %117
  store i32 %118, ptr %17, align 4, !tbaa !13
  %119 = load i32, ptr %17, align 4, !tbaa !13
  %120 = load i32, ptr %17, align 4, !tbaa !13
  %121 = add nsw i32 %119, %120
  store i32 %121, ptr %18, align 4, !tbaa !13
  %122 = load ptr, ptr %9, align 8, !tbaa !11
  %123 = call ptr @BN_CTX_get(ptr noundef %122)
  store ptr %123, ptr %16, align 8, !tbaa !6
  %124 = load ptr, ptr %16, align 8, !tbaa !6
  %125 = icmp eq ptr %124, null
  br i1 %125, label %126, label %127

126:                                              ; preds = %115
  br label %246

127:                                              ; preds = %115
  %128 = load i32, ptr %12, align 4, !tbaa !13
  %129 = load i32, ptr %17, align 4, !tbaa !13
  %130 = icmp sgt i32 %128, %129
  br i1 %130, label %135, label %131

131:                                              ; preds = %127
  %132 = load i32, ptr %13, align 4, !tbaa !13
  %133 = load i32, ptr %17, align 4, !tbaa !13
  %134 = icmp sgt i32 %132, %133
  br i1 %134, label %135, label %171

135:                                              ; preds = %131, %127
  %136 = load ptr, ptr %16, align 8, !tbaa !6
  %137 = load i32, ptr %18, align 4, !tbaa !13
  %138 = mul nsw i32 %137, 4
  %139 = sext i32 %138 to i64
  %140 = call ptr @bn_wexpand(ptr noundef %136, i64 noundef %139)
  %141 = icmp eq ptr %140, null
  br i1 %141, label %142, label %143

142:                                              ; preds = %135
  br label %246

143:                                              ; preds = %135
  %144 = load ptr, ptr %14, align 8, !tbaa !6
  %145 = load i32, ptr %18, align 4, !tbaa !13
  %146 = mul nsw i32 %145, 4
  %147 = sext i32 %146 to i64
  %148 = call ptr @bn_wexpand(ptr noundef %144, i64 noundef %147)
  %149 = icmp eq ptr %148, null
  br i1 %149, label %150, label %151

150:                                              ; preds = %143
  br label %246

151:                                              ; preds = %143
  %152 = load ptr, ptr %14, align 8, !tbaa !6
  %153 = getelementptr inbounds nuw %struct.bignum_st, ptr %152, i32 0, i32 0
  %154 = load ptr, ptr %153, align 8, !tbaa !19
  %155 = load ptr, ptr %7, align 8, !tbaa !6
  %156 = getelementptr inbounds nuw %struct.bignum_st, ptr %155, i32 0, i32 0
  %157 = load ptr, ptr %156, align 8, !tbaa !19
  %158 = load ptr, ptr %8, align 8, !tbaa !6
  %159 = getelementptr inbounds nuw %struct.bignum_st, ptr %158, i32 0, i32 0
  %160 = load ptr, ptr %159, align 8, !tbaa !19
  %161 = load i32, ptr %17, align 4, !tbaa !13
  %162 = load i32, ptr %12, align 4, !tbaa !13
  %163 = load i32, ptr %17, align 4, !tbaa !13
  %164 = sub nsw i32 %162, %163
  %165 = load i32, ptr %13, align 4, !tbaa !13
  %166 = load i32, ptr %17, align 4, !tbaa !13
  %167 = sub nsw i32 %165, %166
  %168 = load ptr, ptr %16, align 8, !tbaa !6
  %169 = getelementptr inbounds nuw %struct.bignum_st, ptr %168, i32 0, i32 0
  %170 = load ptr, ptr %169, align 8, !tbaa !19
  call void @bn_mul_part_recursive(ptr noundef %154, ptr noundef %157, ptr noundef %160, i32 noundef %161, i32 noundef %164, i32 noundef %167, ptr noundef %170)
  br label %207

171:                                              ; preds = %131
  %172 = load ptr, ptr %16, align 8, !tbaa !6
  %173 = load i32, ptr %18, align 4, !tbaa !13
  %174 = mul nsw i32 %173, 2
  %175 = sext i32 %174 to i64
  %176 = call ptr @bn_wexpand(ptr noundef %172, i64 noundef %175)
  %177 = icmp eq ptr %176, null
  br i1 %177, label %178, label %179

178:                                              ; preds = %171
  br label %246

179:                                              ; preds = %171
  %180 = load ptr, ptr %14, align 8, !tbaa !6
  %181 = load i32, ptr %18, align 4, !tbaa !13
  %182 = mul nsw i32 %181, 2
  %183 = sext i32 %182 to i64
  %184 = call ptr @bn_wexpand(ptr noundef %180, i64 noundef %183)
  %185 = icmp eq ptr %184, null
  br i1 %185, label %186, label %187

186:                                              ; preds = %179
  br label %246

187:                                              ; preds = %179
  %188 = load ptr, ptr %14, align 8, !tbaa !6
  %189 = getelementptr inbounds nuw %struct.bignum_st, ptr %188, i32 0, i32 0
  %190 = load ptr, ptr %189, align 8, !tbaa !19
  %191 = load ptr, ptr %7, align 8, !tbaa !6
  %192 = getelementptr inbounds nuw %struct.bignum_st, ptr %191, i32 0, i32 0
  %193 = load ptr, ptr %192, align 8, !tbaa !19
  %194 = load ptr, ptr %8, align 8, !tbaa !6
  %195 = getelementptr inbounds nuw %struct.bignum_st, ptr %194, i32 0, i32 0
  %196 = load ptr, ptr %195, align 8, !tbaa !19
  %197 = load i32, ptr %17, align 4, !tbaa !13
  %198 = load i32, ptr %12, align 4, !tbaa !13
  %199 = load i32, ptr %17, align 4, !tbaa !13
  %200 = sub nsw i32 %198, %199
  %201 = load i32, ptr %13, align 4, !tbaa !13
  %202 = load i32, ptr %17, align 4, !tbaa !13
  %203 = sub nsw i32 %201, %202
  %204 = load ptr, ptr %16, align 8, !tbaa !6
  %205 = getelementptr inbounds nuw %struct.bignum_st, ptr %204, i32 0, i32 0
  %206 = load ptr, ptr %205, align 8, !tbaa !19
  call void @bn_mul_recursive(ptr noundef %190, ptr noundef %193, ptr noundef %196, i32 noundef %197, i32 noundef %200, i32 noundef %203, ptr noundef %206)
  br label %207

207:                                              ; preds = %187, %151
  %208 = load i32, ptr %11, align 4, !tbaa !13
  %209 = load ptr, ptr %14, align 8, !tbaa !6
  %210 = getelementptr inbounds nuw %struct.bignum_st, ptr %209, i32 0, i32 1
  store i32 %208, ptr %210, align 8, !tbaa !15
  br label %234

211:                                              ; preds = %98, %95
  br label %212

212:                                              ; preds = %211, %92, %89
  %213 = load ptr, ptr %14, align 8, !tbaa !6
  %214 = load i32, ptr %11, align 4, !tbaa !13
  %215 = sext i32 %214 to i64
  %216 = call ptr @bn_wexpand(ptr noundef %213, i64 noundef %215)
  %217 = icmp eq ptr %216, null
  br i1 %217, label %218, label %219

218:                                              ; preds = %212
  br label %246

219:                                              ; preds = %212
  %220 = load i32, ptr %11, align 4, !tbaa !13
  %221 = load ptr, ptr %14, align 8, !tbaa !6
  %222 = getelementptr inbounds nuw %struct.bignum_st, ptr %221, i32 0, i32 1
  store i32 %220, ptr %222, align 8, !tbaa !15
  %223 = load ptr, ptr %14, align 8, !tbaa !6
  %224 = getelementptr inbounds nuw %struct.bignum_st, ptr %223, i32 0, i32 0
  %225 = load ptr, ptr %224, align 8, !tbaa !19
  %226 = load ptr, ptr %7, align 8, !tbaa !6
  %227 = getelementptr inbounds nuw %struct.bignum_st, ptr %226, i32 0, i32 0
  %228 = load ptr, ptr %227, align 8, !tbaa !19
  %229 = load i32, ptr %12, align 4, !tbaa !13
  %230 = load ptr, ptr %8, align 8, !tbaa !6
  %231 = getelementptr inbounds nuw %struct.bignum_st, ptr %230, i32 0, i32 0
  %232 = load ptr, ptr %231, align 8, !tbaa !19
  %233 = load i32, ptr %13, align 4, !tbaa !13
  call void @bn_mul_normal(ptr noundef %225, ptr noundef %228, i32 noundef %229, ptr noundef %232, i32 noundef %233)
  br label %234

234:                                              ; preds = %219, %207, %76
  %235 = load ptr, ptr %14, align 8, !tbaa !6
  call void @bn_correct_top(ptr noundef %235)
  %236 = load ptr, ptr %6, align 8, !tbaa !6
  %237 = load ptr, ptr %14, align 8, !tbaa !6
  %238 = icmp ne ptr %236, %237
  br i1 %238, label %239, label %245

239:                                              ; preds = %234
  %240 = load ptr, ptr %6, align 8, !tbaa !6
  %241 = load ptr, ptr %14, align 8, !tbaa !6
  %242 = call ptr @BN_copy(ptr noundef %240, ptr noundef %241)
  %243 = icmp ne ptr %242, null
  br i1 %243, label %245, label %244

244:                                              ; preds = %239
  br label %246

245:                                              ; preds = %239, %234
  store i32 1, ptr %10, align 4, !tbaa !13
  br label %246

246:                                              ; preds = %245, %244, %218, %186, %178, %150, %142, %126, %75, %49
  %247 = load ptr, ptr %9, align 8, !tbaa !11
  call void @BN_CTX_end(ptr noundef %247)
  %248 = load i32, ptr %10, align 4, !tbaa !13
  store i32 %248, ptr %5, align 4
  store i32 1, ptr %19, align 4
  br label %249

249:                                              ; preds = %246, %31
  call void @llvm.lifetime.end.p0(i64 4, ptr %18) #4
  call void @llvm.lifetime.end.p0(i64 4, ptr %17) #4
  call void @llvm.lifetime.end.p0(i64 8, ptr %16) #4
  call void @llvm.lifetime.end.p0(i64 4, ptr %15) #4
  call void @llvm.lifetime.end.p0(i64 8, ptr %14) #4
  call void @llvm.lifetime.end.p0(i64 4, ptr %13) #4
  call void @llvm.lifetime.end.p0(i64 4, ptr %12) #4
  call void @llvm.lifetime.end.p0(i64 4, ptr %11) #4
  call void @llvm.lifetime.end.p0(i64 4, ptr %10) #4
  %250 = load i32, ptr %5, align 4
  ret i32 %250
}