; Function Attrs: nounwind uwtable
define hidden range(i32 0, 2) i32 @BN_mul(ptr noundef %0, ptr noundef readonly captures(address) %1, ptr noundef readonly captures(address) %2, ptr noundef %3) local_unnamed_addr #0 {
  %5 = getelementptr inbounds nuw i8, ptr %1, i64 8
  %6 = load i32, ptr %5, align 8, !tbaa !6
  %7 = getelementptr inbounds nuw i8, ptr %2, i64 8
  %8 = load i32, ptr %7, align 8, !tbaa !6
  %9 = icmp eq i32 %6, 0
  %10 = icmp eq i32 %8, 0
  %or.cond = select i1 %9, i1 true, i1 %10
  br i1 %or.cond, label %11, label %12

11:                                               ; preds = %4
  tail call void @BN_zero(ptr noundef %0) #5
  br label %98

12:                                               ; preds = %4
  %13 = add nsw i32 %8, %6
  tail call void @BN_CTX_start(ptr noundef %3) #5
  %14 = icmp eq ptr %0, %1
  %15 = icmp eq ptr %0, %2
  %or.cond106 = or i1 %14, %15
  br i1 %or.cond106, label %16, label %19

16:                                               ; preds = %12
  %17 = tail call ptr @BN_CTX_get(ptr noundef %3) #5
  %18 = icmp eq ptr %17, null
  br i1 %18, label %97, label %19

19:                                               ; preds = %12, %16
  %.096 = phi ptr [ %17, %16 ], [ %0, %12 ]
  %20 = getelementptr inbounds nuw i8, ptr %1, i64 16
  %21 = load i32, ptr %20, align 8, !tbaa !13
  %22 = getelementptr inbounds nuw i8, ptr %2, i64 16
  %23 = load i32, ptr %22, align 8, !tbaa !13
  %24 = xor i32 %23, %21
  %25 = getelementptr inbounds nuw i8, ptr %.096, i64 16
  store i32 %24, ptr %25, align 8, !tbaa !13
  %26 = sub nsw i32 %6, %8
  %27 = icmp eq i32 %6, 8
  %28 = icmp eq i32 %8, 8
  %or.cond7 = and i1 %27, %28
  br i1 %or.cond7, label %29, label %37

29:                                               ; preds = %19
  %30 = tail call ptr @bn_wexpand(ptr noundef nonnull %.096, i64 noundef 16) #5
  %31 = icmp eq ptr %30, null
  br i1 %31, label %97, label %32

32:                                               ; preds = %29
  %33 = getelementptr inbounds nuw i8, ptr %.096, i64 8
  store i32 16, ptr %33, align 8, !tbaa !6
  %34 = load ptr, ptr %.096, align 8, !tbaa !14
  %35 = load ptr, ptr %1, align 8, !tbaa !14
  %36 = load ptr, ptr %2, align 8, !tbaa !14
  tail call void @bn_mul_comba8(ptr noundef %34, ptr noundef %35, ptr noundef %36) #5
  br label %93

37:                                               ; preds = %19
  %38 = icmp sgt i32 %6, 15
  %39 = icmp sgt i32 %8, 15
  %or.cond3 = select i1 %38, i1 %39, i1 false
  %40 = add i32 %26, 1
  %or.cond5 = icmp ult i32 %40, 3
  %or.cond107 = select i1 %or.cond3, i1 %or.cond5, i1 false
  br i1 %or.cond107, label %41, label %84

41:                                               ; preds = %37
  %42 = icmp slt i32 %26, 0
  %. = select i1 %42, i32 %8, i32 %6
  %43 = zext nneg i32 %. to i64
  %44 = tail call i32 @BN_num_bits_word(i64 noundef %43) #5
  %45 = add nsw i32 %44, -1
  %46 = shl nuw i32 1, %45
  %47 = tail call ptr @BN_CTX_get(ptr noundef %3) #5
  %48 = icmp eq ptr %47, null
  br i1 %48, label %97, label %49

49:                                               ; preds = %41
  %50 = icmp sgt i32 %6, %46
  %51 = icmp sgt i32 %8, %46
  %or.cond108 = select i1 %50, i1 true, i1 %51
  br i1 %or.cond108, label %52, label %67

52:                                               ; preds = %49
  %53 = shl i32 8, %45
  %54 = sext i32 %53 to i64
  %55 = tail call ptr @bn_wexpand(ptr noundef nonnull %47, i64 noundef %54) #5
  %56 = icmp eq ptr %55, null
  br i1 %56, label %97, label %57

57:                                               ; preds = %52
  %58 = tail call ptr @bn_wexpand(ptr noundef nonnull %.096, i64 noundef %54) #5
  %59 = icmp eq ptr %58, null
  br i1 %59, label %97, label %60

60:                                               ; preds = %57
  %61 = load ptr, ptr %.096, align 8, !tbaa !14
  %62 = load ptr, ptr %1, align 8, !tbaa !14
  %63 = load ptr, ptr %2, align 8, !tbaa !14
  %64 = sub nsw i32 %6, %46
  %65 = sub nsw i32 %8, %46
  %66 = load ptr, ptr %47, align 8, !tbaa !14
  tail call fastcc void @bn_mul_part_recursive(ptr noundef %61, ptr noundef %62, ptr noundef %63, i32 noundef %46, i32 noundef %64, i32 noundef %65, ptr noundef %66)
  br label %82

67:                                               ; preds = %49
  %68 = shl i32 4, %45
  %69 = sext i32 %68 to i64
  %70 = tail call ptr @bn_wexpand(ptr noundef nonnull %47, i64 noundef %69) #5
  %71 = icmp eq ptr %70, null
  br i1 %71, label %97, label %72

72:                                               ; preds = %67
  %73 = tail call ptr @bn_wexpand(ptr noundef nonnull %.096, i64 noundef %69) #5
  %74 = icmp eq ptr %73, null
  br i1 %74, label %97, label %75

75:                                               ; preds = %72
  %76 = load ptr, ptr %.096, align 8, !tbaa !14
  %77 = load ptr, ptr %1, align 8, !tbaa !14
  %78 = load ptr, ptr %2, align 8, !tbaa !14
  %79 = sub nsw i32 %6, %46
  %80 = sub nsw i32 %8, %46
  %81 = load ptr, ptr %47, align 8, !tbaa !14
  tail call fastcc void @bn_mul_recursive(ptr noundef %76, ptr noundef %77, ptr noundef %78, i32 noundef %46, i32 noundef %79, i32 noundef %80, ptr noundef %81)
  br label %82

82:                                               ; preds = %75, %60
  %83 = getelementptr inbounds nuw i8, ptr %.096, i64 8
  store i32 %13, ptr %83, align 8, !tbaa !6
  br label %93

84:                                               ; preds = %37
  %85 = sext i32 %13 to i64
  %86 = tail call ptr @bn_wexpand(ptr noundef nonnull %.096, i64 noundef %85) #5
  %87 = icmp eq ptr %86, null
  br i1 %87, label %97, label %88

88:                                               ; preds = %84
  %89 = getelementptr inbounds nuw i8, ptr %.096, i64 8
  store i32 %13, ptr %89, align 8, !tbaa !6
  %90 = load ptr, ptr %.096, align 8, !tbaa !14
  %91 = load ptr, ptr %1, align 8, !tbaa !14
  %92 = load ptr, ptr %2, align 8, !tbaa !14
  tail call fastcc void @bn_mul_normal(ptr noundef %90, ptr noundef %91, i32 noundef %6, ptr noundef %92, i32 noundef %8)
  br label %93

93:                                               ; preds = %88, %82, %32
  tail call void @bn_correct_top(ptr noundef nonnull %.096) #5
  %.not = icmp eq ptr %0, %.096
  br i1 %.not, label %96, label %94

94:                                               ; preds = %93
  %95 = tail call ptr @BN_copy(ptr noundef %0, ptr noundef nonnull %.096) #5
  %.not105 = icmp eq ptr %95, null
  br i1 %.not105, label %97, label %96

96:                                               ; preds = %94, %93
  br label %97

97:                                               ; preds = %94, %84, %72, %67, %57, %52, %41, %29, %16, %96
  %.095 = phi i32 [ 0, %16 ], [ 0, %29 ], [ 1, %96 ], [ 0, %94 ], [ 0, %41 ], [ 0, %52 ], [ 0, %57 ], [ 0, %67 ], [ 0, %72 ], [ 0, %84 ]
  tail call void @BN_CTX_end(ptr noundef %3) #5
  br label %98

98:                                               ; preds = %97, %11
  %.0 = phi i32 [ 1, %11 ], [ %.095, %97 ]
  ret i32 %.0
}